; ModuleID = 'source-C-CXX/53/690.cpp'
source_filename = "source-C-CXX/53/690.cpp"
target datalayout = "e-m:e-p270:32:32-p271:32:32-p272:64:64-i64:64-f80:128-n8:16:32:64-S128"
target triple = "x86_64-pc-linux-gnu"

%"class.std::ios_base::Init" = type { i8 }
%"class.std::basic_istream" = type { i32 (...)**, i64, %"class.std::basic_ios" }
%"class.std::basic_ios" = type { %"class.std::ios_base", %"class.std::basic_ostream"*, i8, i8, %"class.std::basic_streambuf"*, %"class.std::ctype"*, %"class.std::num_put"*, %"class.std::num_get"* }
%"class.std::ios_base" = type { i32 (...)**, i64, i64, i32, i32, i32, %"struct.std::ios_base::_Callback_list"*, %"struct.std::ios_base::_Words", [8 x %"struct.std::ios_base::_Words"], i32, %"struct.std::ios_base::_Words"*, %"class.std::locale" }
%"struct.std::ios_base::_Callback_list" = type { %"struct.std::ios_base::_Callback_list"*, void (i32, %"class.std::ios_base"*, i32)*, i32, i32 }
%"struct.std::ios_base::_Words" = type { i8*, i64 }
%"class.std::locale" = type { %"class.std::locale::_Impl"* }
%"class.std::locale::_Impl" = type { i32, %"class.std::locale::facet"**, i64, %"class.std::locale::facet"**, i8** }
%"class.std::locale::facet" = type <{ i32 (...)**, i32, [4 x i8] }>
%"class.std::basic_ostream" = type { i32 (...)**, %"class.std::basic_ios" }
%"class.std::basic_streambuf" = type { i32 (...)**, i8*, i8*, i8*, i8*, i8*, i8*, %"class.std::locale" }
%"class.std::ctype" = type <{ %"class.std::locale::facet.base", [4 x i8], %struct.__locale_struct*, i8, [7 x i8], i32*, i32*, i16*, i8, [256 x i8], [256 x i8], i8, [6 x i8] }>
%"class.std::locale::facet.base" = type <{ i32 (...)**, i32 }>
%struct.__locale_struct = type { [13 x %struct.__locale_data*], i16*, i32*, i32*, [13 x i8*] }
%struct.__locale_data = type opaque
%"class.std::num_put" = type { %"class.std::locale::facet.base", [4 x i8] }
%"class.std::num_get" = type { %"class.std::locale::facet.base", [4 x i8] }

@_ZStL8__ioinit = internal global %"class.std::ios_base::Init" zeroinitializer, align 1
@__dso_handle = external hidden global i8
@_ZSt3cin = external global %"class.std::basic_istream", align 8
@_ZSt4cout = external global %"class.std::basic_ostream", align 8
@llvm.global_ctors = appending global [1 x { i32, void ()*, i8* }] [{ i32, void ()*, i8* } { i32 65535, void ()* @_GLOBAL__sub_I_690.cpp, i8* null }]

declare void @_ZNSt8ios_base4InitC1Ev(%"class.std::ios_base::Init"* nonnull align 1 dereferenceable(1)) unnamed_addr #0

; Function Attrs: nounwind
declare void @_ZNSt8ios_base4InitD1Ev(%"class.std::ios_base::Init"* nonnull align 1 dereferenceable(1)) unnamed_addr #1

; Function Attrs: nofree nounwind
declare i32 @__cxa_atexit(void (i8*)*, i8*, i8*) local_unnamed_addr #2

; Function Attrs: mustprogress nofree nosync nounwind readnone sspstrong uwtable willreturn
define dso_local i32 @_Z2anii(i32 %0, i32 %1) local_unnamed_addr #3 {
  %3 = icmp eq i32 %1, 0
  br i1 %3, label %71, label %4

4:                                                ; preds = %2
  %5 = icmp ult i32 %1, 8
  br i1 %5, label %62, label %6

6:                                                ; preds = %4
  %7 = and i32 %1, -8
  %8 = and i32 %1, 7
  %9 = insertelement <4 x i32> poison, i32 %0, i32 0
  %10 = shufflevector <4 x i32> %9, <4 x i32> poison, <4 x i32> zeroinitializer
  %11 = insertelement <4 x i32> poison, i32 %0, i32 0
  %12 = shufflevector <4 x i32> %11, <4 x i32> poison, <4 x i32> zeroinitializer
  %13 = add i32 %7, -8
  %14 = lshr exact i32 %13, 3
  %15 = add nuw nsw i32 %14, 1
  %16 = and i32 %15, 7
  %17 = icmp ult i32 %13, 56
  br i1 %17, label %42, label %18

18:                                               ; preds = %6
  %19 = and i32 %15, 1073741816
  br label %20

20:                                               ; preds = %20, %18
  %21 = phi <4 x i32> [ <i32 1, i32 1, i32 1, i32 1>, %18 ], [ %38, %20 ]
  %22 = phi <4 x i32> [ <i32 1, i32 1, i32 1, i32 1>, %18 ], [ %39, %20 ]
  %23 = phi i32 [ %19, %18 ], [ %40, %20 ]
  %24 = mul <4 x i32> %21, %10
  %25 = mul <4 x i32> %22, %12
  %26 = mul <4 x i32> %24, %10
  %27 = mul <4 x i32> %25, %12
  %28 = mul <4 x i32> %26, %10
  %29 = mul <4 x i32> %27, %12
  %30 = mul <4 x i32> %28, %10
  %31 = mul <4 x i32> %29, %12
  %32 = mul <4 x i32> %30, %10
  %33 = mul <4 x i32> %31, %12
  %34 = mul <4 x i32> %32, %10
  %35 = mul <4 x i32> %33, %12
  %36 = mul <4 x i32> %34, %10
  %37 = mul <4 x i32> %35, %12
  %38 = mul <4 x i32> %36, %10
  %39 = mul <4 x i32> %37, %12
  %40 = add i32 %23, -8
  %41 = icmp eq i32 %40, 0
  br i1 %41, label %42, label %20, !llvm.loop !5

42:                                               ; preds = %20, %6
  %43 = phi <4 x i32> [ undef, %6 ], [ %38, %20 ]
  %44 = phi <4 x i32> [ undef, %6 ], [ %39, %20 ]
  %45 = phi <4 x i32> [ <i32 1, i32 1, i32 1, i32 1>, %6 ], [ %38, %20 ]
  %46 = phi <4 x i32> [ <i32 1, i32 1, i32 1, i32 1>, %6 ], [ %39, %20 ]
  %47 = icmp eq i32 %16, 0
  br i1 %47, label %56, label %48

48:                                               ; preds = %42, %48
  %49 = phi <4 x i32> [ %52, %48 ], [ %45, %42 ]
  %50 = phi <4 x i32> [ %53, %48 ], [ %46, %42 ]
  %51 = phi i32 [ %54, %48 ], [ %16, %42 ]
  %52 = mul <4 x i32> %49, %10
  %53 = mul <4 x i32> %50, %12
  %54 = add i32 %51, -1
  %55 = icmp eq i32 %54, 0
  br i1 %55, label %56, label %48, !llvm.loop !7

56:                                               ; preds = %48, %42
  %57 = phi <4 x i32> [ %43, %42 ], [ %52, %48 ]
  %58 = phi <4 x i32> [ %44, %42 ], [ %53, %48 ]
  %59 = mul <4 x i32> %58, %57
  %60 = call i32 @llvm.vector.reduce.mul.v4i32(<4 x i32> %59)
  %61 = icmp eq i32 %7, %1
  br i1 %61, label %71, label %62

62:                                               ; preds = %4, %56
  %63 = phi i32 [ %1, %4 ], [ %8, %56 ]
  %64 = phi i32 [ 1, %4 ], [ %60, %56 ]
  br label %65

65:                                               ; preds = %62, %65
  %66 = phi i32 [ %68, %65 ], [ %63, %62 ]
  %67 = phi i32 [ %69, %65 ], [ %64, %62 ]
  %68 = add nsw i32 %66, -1
  %69 = mul nsw i32 %67, %0
  %70 = icmp eq i32 %68, 0
  br i1 %70, label %71, label %65, !llvm.loop !9

71:                                               ; preds = %65, %56, %2
  %72 = phi i32 [ 1, %2 ], [ %60, %56 ], [ %69, %65 ]
  ret i32 %72
}

; Function Attrs: mustprogress nofree nosync nounwind readnone sspstrong uwtable willreturn
define dso_local i32 @_Z4funciii(i32 %0, i32 %1, i32 %2) local_unnamed_addr #3 {
  %4 = icmp eq i32 %1, 0
  br i1 %4, label %5, label %77

5:                                                ; preds = %3
  %6 = add nsw i32 %0, -1
  %7 = icmp eq i32 %0, 0
  br i1 %7, label %75, label %8

8:                                                ; preds = %5
  %9 = icmp ult i32 %0, 8
  br i1 %9, label %66, label %10

10:                                               ; preds = %8
  %11 = and i32 %0, -8
  %12 = and i32 %0, 7
  %13 = insertelement <4 x i32> poison, i32 %6, i32 0
  %14 = shufflevector <4 x i32> %13, <4 x i32> poison, <4 x i32> zeroinitializer
  %15 = insertelement <4 x i32> poison, i32 %6, i32 0
  %16 = shufflevector <4 x i32> %15, <4 x i32> poison, <4 x i32> zeroinitializer
  %17 = add i32 %11, -8
  %18 = lshr exact i32 %17, 3
  %19 = add nuw nsw i32 %18, 1
  %20 = and i32 %19, 7
  %21 = icmp ult i32 %17, 56
  br i1 %21, label %46, label %22

22:                                               ; preds = %10
  %23 = and i32 %19, 1073741816
  br label %24

24:                                               ; preds = %24, %22
  %25 = phi <4 x i32> [ <i32 1, i32 1, i32 1, i32 1>, %22 ], [ %42, %24 ]
  %26 = phi <4 x i32> [ <i32 1, i32 1, i32 1, i32 1>, %22 ], [ %43, %24 ]
  %27 = phi i32 [ %23, %22 ], [ %44, %24 ]
  %28 = mul <4 x i32> %25, %14
  %29 = mul <4 x i32> %26, %16
  %30 = mul <4 x i32> %28, %14
  %31 = mul <4 x i32> %29, %16
  %32 = mul <4 x i32> %30, %14
  %33 = mul <4 x i32> %31, %16
  %34 = mul <4 x i32> %32, %14
  %35 = mul <4 x i32> %33, %16
  %36 = mul <4 x i32> %34, %14
  %37 = mul <4 x i32> %35, %16
  %38 = mul <4 x i32> %36, %14
  %39 = mul <4 x i32> %37, %16
  %40 = mul <4 x i32> %38, %14
  %41 = mul <4 x i32> %39, %16
  %42 = mul <4 x i32> %40, %14
  %43 = mul <4 x i32> %41, %16
  %44 = add i32 %27, -8
  %45 = icmp eq i32 %44, 0
  br i1 %45, label %46, label %24, !llvm.loop !11

46:                                               ; preds = %24, %10
  %47 = phi <4 x i32> [ undef, %10 ], [ %42, %24 ]
  %48 = phi <4 x i32> [ undef, %10 ], [ %43, %24 ]
  %49 = phi <4 x i32> [ <i32 1, i32 1, i32 1, i32 1>, %10 ], [ %42, %24 ]
  %50 = phi <4 x i32> [ <i32 1, i32 1, i32 1, i32 1>, %10 ], [ %43, %24 ]
  %51 = icmp eq i32 %20, 0
  br i1 %51, label %60, label %52

52:                                               ; preds = %46, %52
  %53 = phi <4 x i32> [ %56, %52 ], [ %49, %46 ]
  %54 = phi <4 x i32> [ %57, %52 ], [ %50, %46 ]
  %55 = phi i32 [ %58, %52 ], [ %20, %46 ]
  %56 = mul <4 x i32> %53, %14
  %57 = mul <4 x i32> %54, %16
  %58 = add i32 %55, -1
  %59 = icmp eq i32 %58, 0
  br i1 %59, label %60, label %52, !llvm.loop !12

60:                                               ; preds = %52, %46
  %61 = phi <4 x i32> [ %47, %46 ], [ %56, %52 ]
  %62 = phi <4 x i32> [ %48, %46 ], [ %57, %52 ]
  %63 = mul <4 x i32> %62, %61
  %64 = call i32 @llvm.vector.reduce.mul.v4i32(<4 x i32> %63)
  %65 = icmp eq i32 %11, %0
  br i1 %65, label %75, label %66

66:                                               ; preds = %8, %60
  %67 = phi i32 [ %0, %8 ], [ %12, %60 ]
  %68 = phi i32 [ 1, %8 ], [ %64, %60 ]
  br label %69

69:                                               ; preds = %66, %69
  %70 = phi i32 [ %72, %69 ], [ %67, %66 ]
  %71 = phi i32 [ %73, %69 ], [ %68, %66 ]
  %72 = add nsw i32 %70, -1
  %73 = mul nsw i32 %71, %6
  %74 = icmp eq i32 %72, 0
  br i1 %74, label %75, label %69, !llvm.loop !13

75:                                               ; preds = %69, %60, %5, %77
  %76 = phi i32 [ %82, %77 ], [ 1, %5 ], [ %64, %60 ], [ %73, %69 ]
  ret i32 %76

77:                                               ; preds = %3
  %78 = add nsw i32 %1, -1
  %79 = tail call i32 @_Z4funciii(i32 %0, i32 %78, i32 %2)
  %80 = mul nsw i32 %79, %0
  %81 = add nsw i32 %0, -1
  %82 = sdiv i32 %80, %81
  br label %75
}

; Function Attrs: mustprogress norecurse sspstrong uwtable
define dso_local i32 @main() local_unnamed_addr #4 {
  %1 = alloca i32, align 4
  %2 = alloca i32, align 4
  %3 = bitcast i32* %1 to i8*
  call void @llvm.lifetime.start.p0i8(i64 4, i8* nonnull %3) #9
  %4 = bitcast i32* %2 to i8*
  call void @llvm.lifetime.start.p0i8(i64 4, i8* nonnull %4) #9
  %5 = call nonnull align 8 dereferenceable(16) %"class.std::basic_istream"* @_ZNSirsERi(%"class.std::basic_istream"* nonnull align 8 dereferenceable(16) @_ZSt3cin, i32* nonnull align 4 dereferenceable(4) %1)
  %6 = call nonnull align 8 dereferenceable(16) %"class.std::basic_istream"* @_ZNSirsERi(%"class.std::basic_istream"* nonnull align 8 dereferenceable(16) %5, i32* nonnull align 4 dereferenceable(4) %2)
  %7 = load i32, i32* %1, align 4, !tbaa !14
  %8 = load i32, i32* %2, align 4, !tbaa !14
  %9 = call i32 @_Z4funciii(i32 %7, i32 %7, i32 %8)
  %10 = add nsw i32 %7, -1
  %11 = mul nsw i32 %10, %8
  %12 = sub nsw i32 %9, %11
  %13 = call nonnull align 8 dereferenceable(8) %"class.std::basic_ostream"* @_ZNSolsEi(%"class.std::basic_ostream"* nonnull align 8 dereferenceable(8) @_ZSt4cout, i32 %12)
  %14 = bitcast %"class.std::basic_ostream"* %13 to i8**
  %15 = load i8*, i8** %14, align 8, !tbaa !18
  %16 = getelementptr i8, i8* %15, i64 -24
  %17 = bitcast i8* %16 to i64*
  %18 = load i64, i64* %17, align 8
  %19 = bitcast %"class.std::basic_ostream"* %13 to i8*
  %20 = add nsw i64 %18, 240
  %21 = getelementptr inbounds i8, i8* %19, i64 %20
  %22 = bitcast i8* %21 to %"class.std::ctype"**
  %23 = load %"class.std::ctype"*, %"class.std::ctype"** %22, align 8, !tbaa !20
  %24 = icmp eq %"class.std::ctype"* %23, null
  br i1 %24, label %25, label %26

25:                                               ; preds = %0
  call void @_ZSt16__throw_bad_castv() #10
  unreachable

26:                                               ; preds = %0
  %27 = getelementptr inbounds %"class.std::ctype", %"class.std::ctype"* %23, i64 0, i32 8
  %28 = load i8, i8* %27, align 8, !tbaa !24
  %29 = icmp eq i8 %28, 0
  br i1 %29, label %33, label %30

30:                                               ; preds = %26
  %31 = getelementptr inbounds %"class.std::ctype", %"class.std::ctype"* %23, i64 0, i32 9, i64 10
  %32 = load i8, i8* %31, align 1, !tbaa !26
  br label %39

33:                                               ; preds = %26
  call void @_ZNKSt5ctypeIcE13_M_widen_initEv(%"class.std::ctype"* nonnull align 8 dereferenceable(570) %23)
  %34 = bitcast %"class.std::ctype"* %23 to i8 (%"class.std::ctype"*, i8)***
  %35 = load i8 (%"class.std::ctype"*, i8)**, i8 (%"class.std::ctype"*, i8)*** %34, align 8, !tbaa !18
  %36 = getelementptr inbounds i8 (%"class.std::ctype"*, i8)*, i8 (%"class.std::ctype"*, i8)** %35, i64 6
  %37 = load i8 (%"class.std::ctype"*, i8)*, i8 (%"class.std::ctype"*, i8)** %36, align 8
  %38 = call signext i8 %37(%"class.std::ctype"* nonnull align 8 dereferenceable(570) %23, i8 signext 10)
  br label %39

39:                                               ; preds = %30, %33
  %40 = phi i8 [ %32, %30 ], [ %38, %33 ]
  %41 = call nonnull align 8 dereferenceable(8) %"class.std::basic_ostream"* @_ZNSo3putEc(%"class.std::basic_ostream"* nonnull align 8 dereferenceable(8) %13, i8 signext %40)
  %42 = call nonnull align 8 dereferenceable(8) %"class.std::basic_ostream"* @_ZNSo5flushEv(%"class.std::basic_ostream"* nonnull align 8 dereferenceable(8) %41)
  call void @llvm.lifetime.end.p0i8(i64 4, i8* nonnull %4) #9
  call void @llvm.lifetime.end.p0i8(i64 4, i8* nonnull %3) #9
  ret i32 0
}

; Function Attrs: argmemonly mustprogress nofree nosync nounwind willreturn
declare void @llvm.lifetime.start.p0i8(i64 immarg, i8* nocapture) #5

declare nonnull align 8 dereferenceable(16) %"class.std::basic_istream"* @_ZNSirsERi(%"class.std::basic_istream"* nonnull align 8 dereferenceable(16), i32* nonnull align 4 dereferenceable(4)) local_unnamed_addr #0

declare nonnull align 8 dereferenceable(8) %"class.std::basic_ostream"* @_ZNSolsEi(%"class.std::basic_ostream"* nonnull align 8 dereferenceable(8), i32) local_unnamed_addr #0

; Function Attrs: argmemonly mustprogress nofree nosync nounwind willreturn
declare void @llvm.lifetime.end.p0i8(i64 immarg, i8* nocapture) #5

declare nonnull align 8 dereferenceable(8) %"class.std::basic_ostream"* @_ZNSo3putEc(%"class.std::basic_ostream"* nonnull align 8 dereferenceable(8), i8 signext) local_unnamed_addr #0

declare nonnull align 8 dereferenceable(8) %"class.std::basic_ostream"* @_ZNSo5flushEv(%"class.std::basic_ostream"* nonnull align 8 dereferenceable(8)) local_unnamed_addr #0

; Function Attrs: noreturn
declare void @_ZSt16__throw_bad_castv() local_unnamed_addr #6

declare void @_ZNKSt5ctypeIcE13_M_widen_initEv(%"class.std::ctype"* nonnull align 8 dereferenceable(570)) local_unnamed_addr #0

; Function Attrs: sspstrong uwtable
define internal void @_GLOBAL__sub_I_690.cpp() #7 section ".text.startup" {
  tail call void @_ZNSt8ios_base4InitC1Ev(%"class.std::ios_base::Init"* nonnull align 1 dereferenceable(1) @_ZStL8__ioinit)
  %1 = tail call i32 @__cxa_atexit(void (i8*)* bitcast (void (%"class.std::ios_base::Init"*)* @_ZNSt8ios_base4InitD1Ev to void (i8*)*), i8* getelementptr inbounds (%"class.std::ios_base::Init", %"class.std::ios_base::Init"* @_ZStL8__ioinit, i64 0, i32 0), i8* nonnull @__dso_handle) #9
  ret void
}

; Function Attrs: nofree nosync nounwind readnone willreturn
declare i32 @llvm.vector.reduce.mul.v4i32(<4 x i32>) #8


!llvm.module.flags = !{!0, !1, !2, !3}
!llvm.ident = !{!4}

!0 = !{i32 1, !"wchar_size", i32 4}
!1 = !{i32 7, !"PIC Level", i32 2}
!2 = !{i32 7, !"PIE Level", i32 2}
!3 = !{i32 7, !"uwtable", i32 1}
!4 = !{!"clang version 13.0.0"}
!5 = distinct !{!5, !6}
!6 = !{!"llvm.loop.isvectorized", i32 1}
!7 = distinct !{!7, !8}
!8 = !{!"llvm.loop.unroll.disable"}
!9 = distinct !{!9, !10, !6}
!10 = !{!"llvm.loop.unroll.runtime.disable"}
!11 = distinct !{!11, !6}
!12 = distinct !{!12, !8}
!13 = distinct !{!13, !10, !6}
!14 = !{!15, !15, i64 0}
!15 = !{!"int", !16, i64 0}
!16 = !{!"omnipotent char", !17, i64 0}
!17 = !{!"Simple C++ TBAA"}
!18 = !{!19, !19, i64 0}
!19 = !{!"vtable pointer", !17, i64 0}
!20 = !{!21, !22, i64 240}
!21 = !{!"_ZTSSt9basic_iosIcSt11char_traitsIcEE", !22, i64 216, !16, i64 224, !23, i64 225, !22, i64 232, !22, i64 240, !22, i64 248, !22, i64 256}
!22 = !{!"any pointer", !16, i64 0}
!23 = !{!"bool", !16, i64 0}
!24 = !{!25, !16, i64 56}
!25 = !{!"_ZTSSt5ctypeIcE", !22, i64 16, !23, i64 24, !22, i64 32, !22, i64 40, !22, i64 48, !16, i64 56, !16, i64 57, !16, i64 313, !16, i64 569}
!26 = !{!16, !16, i64 0}
